; Function Attrs: mustprogress uwtable
define noundef zeroext i1 @_ZNK2cv17CascadeClassifier5emptyEv(ptr noundef nonnull readonly align 8 captures(none) dereferenceable(16) %0) local_unnamed_addr #5 align 2 {
  %2 = load ptr, ptr %0, align 8, !tbaa !488
  %3 = icmp eq ptr %2, null
  br i1 %3, label %9, label %4

4:                                                ; preds = %1
  %5 = load ptr, ptr %2, align 8, !tbaa !80
  %6 = getelementptr inbounds nuw i8, ptr %5, i64 40
  %7 = load ptr, ptr %6, align 8
  %8 = tail call noundef zeroext i1 %7(ptr noundef nonnull align 8 dereferenceable(8) %2)
  br label %9

9:                                                ; preds = %4, %1
  %10 = phi i1 [ true, %1 ], [ %8, %4 ]
  ret i1 %10
}